target datalayout = "e-m:e-p270:32:32-p271:32:32-p272:64:64-i64:64-i128:128-f80:128-n8:16:32:64-S128"
target triple = "x86_64-pc-linux-gnu"

%"class.net::QuicTime::Delta" = type { %"class.base::TimeDelta", i64 }
%"class.base::TimeDelta" = type { i64 }
%"class.net::QuicTime" = type { i64 }
%"class.net::RttStats" = type { %"class.net::QuicTime::Delta", %"class.net::QuicTime::Delta", %"class.net::QuicTime::Delta", %"class.net::QuicTime::Delta", %"class.net::QuicTime::Delta", i64, %"class.net::QuicTime::Delta", %"class.net::QuicTime", i32, %"class.net::WindowedFilter" }
%"class.net::WindowedFilter" = type { %"class.net::QuicTime::Delta", %"class.net::QuicTime::Delta", [3 x %"struct.net::WindowedFilter<net::QuicTime::Delta, net::MinFilter<net::QuicTime::Delta>, net::QuicTime, net::QuicTime::Delta>::Sample"] }
%"struct.net::WindowedFilter<net::QuicTime::Delta, net::MinFilter<net::QuicTime::Delta>, net::QuicTime, net::QuicTime::Delta>::Sample" = type { %"class.net::QuicTime::Delta", %"class.net::QuicTime" }

; Function Attrs: inlinehint mustprogress uwtable
define linkonce_odr noundef nonnull align 8 dereferenceable(16) ptr @_ZN3net8QuicTime5DeltaaSEOS1_(ptr noundef nonnull align 8 dereferenceable(16) %0, ptr noundef nonnull align 8 dereferenceable(16) %1) #1 comdat align 2 {
  %3 = alloca ptr, align 8
  %4 = alloca ptr, align 8
  %5 = alloca %"class.base::TimeDelta", align 8
  store ptr %0, ptr %3, align 8, !tbaa !23
  store ptr %1, ptr %4, align 8, !tbaa !23
  %6 = load ptr, ptr %3, align 8
  %7 = getelementptr inbounds nuw %"class.net::QuicTime::Delta", ptr %6, i32 0, i32 0
  %8 = load ptr, ptr %4, align 8, !tbaa !23
  %9 = getelementptr inbounds nuw %"class.net::QuicTime::Delta", ptr %8, i32 0, i32 0
  call void @llvm.memcpy.p0.p0.i64(ptr align 8 %5, ptr align 8 %9, i64 8, i1 false), !tbaa.struct !21
  %10 = getelementptr inbounds nuw %"class.base::TimeDelta", ptr %5, i32 0, i32 0
  %11 = load i64, ptr %10, align 8
  %12 = call noundef nonnull align 8 dereferenceable(8) ptr @_ZN4base9TimeDeltaaSES0_(ptr noundef nonnull align 8 dereferenceable(8) %7, i64 %11)
  %13 = load ptr, ptr %4, align 8, !tbaa !23
  %14 = getelementptr inbounds nuw %"class.net::QuicTime::Delta", ptr %13, i32 0, i32 1
  %15 = load i64, ptr %14, align 8, !tbaa !25
  %16 = getelementptr inbounds nuw %"class.net::QuicTime::Delta", ptr %6, i32 0, i32 1
  store i64 %15, ptr %16, align 8, !tbaa !25
  ret ptr %6
}

; Function Attrs: inlinehint mustprogress nounwind uwtable
define linkonce_odr noundef nonnull align 8 dereferenceable(24) ptr @_ZN3net14WindowedFilterINS_8QuicTime5DeltaENS_9MinFilterIS2_EES1_S2_E6SampleaSERKS6_(ptr noundef nonnull align 8 dereferenceable(24) %0, ptr noundef nonnull align 8 dereferenceable(24) %1) #4 comdat align 2 {
  %3 = alloca ptr, align 8
  %4 = alloca ptr, align 8
  store ptr %0, ptr %3, align 8, !tbaa !56
  store ptr %1, ptr %4, align 8, !tbaa !56
  %5 = load ptr, ptr %3, align 8
  %6 = getelementptr inbounds nuw %"struct.net::WindowedFilter<net::QuicTime::Delta, net::MinFilter<net::QuicTime::Delta>, net::QuicTime, net::QuicTime::Delta>::Sample", ptr %5, i32 0, i32 0
  %7 = load ptr, ptr %4, align 8, !tbaa !56
  %8 = getelementptr inbounds nuw %"struct.net::WindowedFilter<net::QuicTime::Delta, net::MinFilter<net::QuicTime::Delta>, net::QuicTime, net::QuicTime::Delta>::Sample", ptr %7, i32 0, i32 0
  %9 = call noundef nonnull align 8 dereferenceable(16) ptr @_ZN3net8QuicTime5DeltaaSERKS1_(ptr noundef nonnull align 8 dereferenceable(16) %6, ptr noundef nonnull align 8 dereferenceable(16) %8)
  %10 = getelementptr inbounds nuw %"struct.net::WindowedFilter<net::QuicTime::Delta, net::MinFilter<net::QuicTime::Delta>, net::QuicTime, net::QuicTime::Delta>::Sample", ptr %5, i32 0, i32 1
  %11 = load ptr, ptr %4, align 8, !tbaa !56
  %12 = getelementptr inbounds nuw %"struct.net::WindowedFilter<net::QuicTime::Delta, net::MinFilter<net::QuicTime::Delta>, net::QuicTime, net::QuicTime::Delta>::Sample", ptr %11, i32 0, i32 1
  call void @llvm.memcpy.p0.p0.i64(ptr align 8 %10, ptr align 8 %12, i64 8, i1 false), !tbaa.struct !21
  ret ptr %5
}

; Function Attrs: inlinehint mustprogress uwtable
define linkonce_odr noundef nonnull align 8 dereferenceable(24) ptr @_ZN3net14WindowedFilterINS_8QuicTime5DeltaENS_9MinFilterIS2_EES1_S2_E6SampleaSEOS6_(ptr noundef nonnull align 8 dereferenceable(24) %0, ptr noundef nonnull align 8 dereferenceable(24) %1) #1 comdat align 2 {
  %3 = alloca ptr, align 8
  %4 = alloca ptr, align 8
  store ptr %0, ptr %3, align 8, !tbaa !56
  store ptr %1, ptr %4, align 8, !tbaa !56
  %5 = load ptr, ptr %3, align 8
  %6 = getelementptr inbounds nuw %"struct.net::WindowedFilter<net::QuicTime::Delta, net::MinFilter<net::QuicTime::Delta>, net::QuicTime, net::QuicTime::Delta>::Sample", ptr %5, i32 0, i32 0
  %7 = load ptr, ptr %4, align 8, !tbaa !56
  %8 = getelementptr inbounds nuw %"struct.net::WindowedFilter<net::QuicTime::Delta, net::MinFilter<net::QuicTime::Delta>, net::QuicTime, net::QuicTime::Delta>::Sample", ptr %7, i32 0, i32 0
  %9 = call noundef nonnull align 8 dereferenceable(16) ptr @_ZN3net8QuicTime5DeltaaSEOS1_(ptr noundef nonnull align 8 dereferenceable(16) %6, ptr noundef nonnull align 8 dereferenceable(16) %8)
  %10 = getelementptr inbounds nuw %"struct.net::WindowedFilter<net::QuicTime::Delta, net::MinFilter<net::QuicTime::Delta>, net::QuicTime, net::QuicTime::Delta>::Sample", ptr %5, i32 0, i32 1
  %11 = load ptr, ptr %4, align 8, !tbaa !56
  %12 = getelementptr inbounds nuw %"struct.net::WindowedFilter<net::QuicTime::Delta, net::MinFilter<net::QuicTime::Delta>, net::QuicTime, net::QuicTime::Delta>::Sample", ptr %11, i32 0, i32 1
  call void @llvm.memcpy.p0.p0.i64(ptr align 8 %10, ptr align 8 %12, i64 8, i1 false), !tbaa.struct !21
  ret ptr %5
}

; Function Attrs: mustprogress nounwind uwtable
define linkonce_odr void @_ZN3net14WindowedFilterINS_8QuicTime5DeltaENS_9MinFilterIS2_EES1_S2_E6SampleC2ES2_S1_(ptr noundef nonnull align 8 dereferenceable(24) %0, i64 %1, i64 %2, i64 %3) unnamed_addr #6 comdat align 2 {
  %5 = alloca %"class.net::QuicTime::Delta", align 8
  %6 = alloca %"class.net::QuicTime", align 8
  %7 = alloca ptr, align 8
  %8 = getelementptr inbounds nuw { i64, i64 }, ptr %5, i32 0, i32 0
  store i64 %1, ptr %8, align 8
  %9 = getelementptr inbounds nuw { i64, i64 }, ptr %5, i32 0, i32 1
  store i64 %2, ptr %9, align 8
  %10 = getelementptr inbounds nuw %"class.net::QuicTime", ptr %6, i32 0, i32 0
  store i64 %3, ptr %10, align 8
  store ptr %0, ptr %7, align 8, !tbaa !56
  %11 = load ptr, ptr %7, align 8
  %12 = getelementptr inbounds nuw %"struct.net::WindowedFilter<net::QuicTime::Delta, net::MinFilter<net::QuicTime::Delta>, net::QuicTime, net::QuicTime::Delta>::Sample", ptr %11, i32 0, i32 0
  call void @llvm.memcpy.p0.p0.i64(ptr align 8 %12, ptr align 8 %5, i64 16, i1 false), !tbaa.struct !20
  %13 = getelementptr inbounds nuw %"struct.net::WindowedFilter<net::QuicTime::Delta, net::MinFilter<net::QuicTime::Delta>, net::QuicTime, net::QuicTime::Delta>::Sample", ptr %11, i32 0, i32 1
  call void @llvm.memcpy.p0.p0.i64(ptr align 8 %13, ptr align 8 %6, i64 8, i1 false), !tbaa.struct !21
  ret void
}

; Function Attrs: mustprogress nounwind uwtable
define linkonce_odr noundef nonnull align 8 dereferenceable(8) ptr @_ZN4base9TimeDeltaaSES0_(ptr noundef nonnull align 8 dereferenceable(8) %0, i64 %1) #6 comdat align 2 {
  %3 = alloca %"class.base::TimeDelta", align 8
  %4 = alloca ptr, align 8
  %5 = getelementptr inbounds nuw %"class.base::TimeDelta", ptr %3, i32 0, i32 0
  store i64 %1, ptr %5, align 8
  store ptr %0, ptr %4, align 8, !tbaa !38
  %6 = load ptr, ptr %4, align 8
  %7 = getelementptr inbounds nuw %"class.base::TimeDelta", ptr %3, i32 0, i32 0
  %8 = load i64, ptr %7, align 8, !tbaa !40
  %9 = getelementptr inbounds nuw %"class.base::TimeDelta", ptr %6, i32 0, i32 0
  store i64 %8, ptr %9, align 8, !tbaa !40
  ret ptr %6
}

; Function Attrs: inlinehint mustprogress nounwind uwtable
define linkonce_odr noundef zeroext i1 @_ZN3netltENS_8QuicTime5DeltaES1_(i64 %0, i64 %1, i64 %2, i64 %3) #4 comdat {
  %5 = alloca %"class.net::QuicTime::Delta", align 8
  %6 = alloca %"class.net::QuicTime::Delta", align 8
  %7 = getelementptr inbounds nuw { i64, i64 }, ptr %5, i32 0, i32 0
  store i64 %0, ptr %7, align 8
  %8 = getelementptr inbounds nuw { i64, i64 }, ptr %5, i32 0, i32 1
  store i64 %1, ptr %8, align 8
  %9 = getelementptr inbounds nuw { i64, i64 }, ptr %6, i32 0, i32 0
  store i64 %2, ptr %9, align 8
  %10 = getelementptr inbounds nuw { i64, i64 }, ptr %6, i32 0, i32 1
  store i64 %3, ptr %10, align 8
  %11 = getelementptr inbounds nuw %"class.net::QuicTime::Delta", ptr %5, i32 0, i32 1
  %12 = load i64, ptr %11, align 8, !tbaa !25
  %13 = getelementptr inbounds nuw %"class.net::QuicTime::Delta", ptr %6, i32 0, i32 1
  %14 = load i64, ptr %13, align 8, !tbaa !25
  %15 = icmp slt i64 %12, %14
  ret i1 %15
}

; Function Attrs: mustprogress uwtable
define linkonce_odr void @_ZN3net14WindowedFilterINS_8QuicTime5DeltaENS_9MinFilterIS2_EES1_S2_E5ResetES2_S1_(ptr noundef nonnull align 8 dereferenceable(104) %0, i64 %1, i64 %2, i64 %3) #0 comdat align 2 {
  %5 = alloca %"class.net::QuicTime::Delta", align 8
  %6 = alloca %"class.net::QuicTime", align 8
  %7 = alloca ptr, align 8
  %8 = alloca %"struct.net::WindowedFilter<net::QuicTime::Delta, net::MinFilter<net::QuicTime::Delta>, net::QuicTime, net::QuicTime::Delta>::Sample", align 8
  %9 = alloca %"class.net::QuicTime::Delta", align 8
  %10 = alloca %"class.net::QuicTime", align 8
  %11 = getelementptr inbounds nuw { i64, i64 }, ptr %5, i32 0, i32 0
  store i64 %1, ptr %11, align 8
  %12 = getelementptr inbounds nuw { i64, i64 }, ptr %5, i32 0, i32 1
  store i64 %2, ptr %12, align 8
  %13 = getelementptr inbounds nuw %"class.net::QuicTime", ptr %6, i32 0, i32 0
  store i64 %3, ptr %13, align 8
  store ptr %0, ptr %7, align 8, !tbaa !18
  %14 = load ptr, ptr %7, align 8
  call void @llvm.lifetime.start.p0(i64 24, ptr %8) #9
  call void @llvm.memcpy.p0.p0.i64(ptr align 8 %9, ptr align 8 %5, i64 16, i1 false), !tbaa.struct !20
  call void @llvm.memcpy.p0.p0.i64(ptr align 8 %10, ptr align 8 %6, i64 8, i1 false), !tbaa.struct !21
  %15 = getelementptr inbounds nuw { i64, i64 }, ptr %9, i32 0, i32 0
  %16 = load i64, ptr %15, align 8
  %17 = getelementptr inbounds nuw { i64, i64 }, ptr %9, i32 0, i32 1
  %18 = load i64, ptr %17, align 8
  %19 = getelementptr inbounds nuw %"class.net::QuicTime", ptr %10, i32 0, i32 0
  %20 = load i64, ptr %19, align 8
  call void @_ZN3net14WindowedFilterINS_8QuicTime5DeltaENS_9MinFilterIS2_EES1_S2_E6SampleC2ES2_S1_(ptr noundef nonnull align 8 dereferenceable(24) %8, i64 %16, i64 %18, i64 %20)
  %21 = getelementptr inbounds nuw %"class.net::WindowedFilter", ptr %14, i32 0, i32 2
  %22 = getelementptr inbounds [3 x %"struct.net::WindowedFilter<net::QuicTime::Delta, net::MinFilter<net::QuicTime::Delta>, net::QuicTime, net::QuicTime::Delta>::Sample"], ptr %21, i64 0, i64 2
  %23 = call noundef nonnull align 8 dereferenceable(24) ptr @_ZN3net14WindowedFilterINS_8QuicTime5DeltaENS_9MinFilterIS2_EES1_S2_E6SampleaSEOS6_(ptr noundef nonnull align 8 dereferenceable(24) %22, ptr noundef nonnull align 8 dereferenceable(24) %8)
  %24 = getelementptr inbounds nuw %"class.net::WindowedFilter", ptr %14, i32 0, i32 2
  %25 = getelementptr inbounds [3 x %"struct.net::WindowedFilter<net::QuicTime::Delta, net::MinFilter<net::QuicTime::Delta>, net::QuicTime, net::QuicTime::Delta>::Sample"], ptr %24, i64 0, i64 1
  %26 = call noundef nonnull align 8 dereferenceable(24) ptr @_ZN3net14WindowedFilterINS_8QuicTime5DeltaENS_9MinFilterIS2_EES1_S2_E6SampleaSERKS6_(ptr noundef nonnull align 8 dereferenceable(24) %25, ptr noundef nonnull align 8 dereferenceable(24) %23)
  %27 = getelementptr inbounds nuw %"class.net::WindowedFilter", ptr %14, i32 0, i32 2
  %28 = getelementptr inbounds [3 x %"struct.net::WindowedFilter<net::QuicTime::Delta, net::MinFilter<net::QuicTime::Delta>, net::QuicTime, net::QuicTime::Delta>::Sample"], ptr %27, i64 0, i64 0
  %29 = call noundef nonnull align 8 dereferenceable(24) ptr @_ZN3net14WindowedFilterINS_8QuicTime5DeltaENS_9MinFilterIS2_EES1_S2_E6SampleaSERKS6_(ptr noundef nonnull align 8 dereferenceable(24) %28, ptr noundef nonnull align 8 dereferenceable(24) %26)
  call void @llvm.lifetime.end.p0(i64 24, ptr %8) #9
  ret void
}

; Function Attrs: inlinehint mustprogress nounwind uwtable
define linkonce_odr noundef nonnull align 8 dereferenceable(16) ptr @_ZN3net8QuicTime5DeltaaSERKS1_(ptr noundef nonnull align 8 dereferenceable(16) %0, ptr noundef nonnull align 8 dereferenceable(16) %1) #4 comdat align 2 {
  %3 = alloca ptr, align 8
  %4 = alloca ptr, align 8
  %5 = alloca %"class.base::TimeDelta", align 8
  store ptr %0, ptr %3, align 8, !tbaa !23
  store ptr %1, ptr %4, align 8, !tbaa !23
  %6 = load ptr, ptr %3, align 8
  %7 = getelementptr inbounds nuw %"class.net::QuicTime::Delta", ptr %6, i32 0, i32 0
  %8 = load ptr, ptr %4, align 8, !tbaa !23
  %9 = getelementptr inbounds nuw %"class.net::QuicTime::Delta", ptr %8, i32 0, i32 0
  call void @llvm.memcpy.p0.p0.i64(ptr align 8 %5, ptr align 8 %9, i64 8, i1 false), !tbaa.struct !21
  %10 = getelementptr inbounds nuw %"class.base::TimeDelta", ptr %5, i32 0, i32 0
  %11 = load i64, ptr %10, align 8
  %12 = call noundef nonnull align 8 dereferenceable(8) ptr @_ZN4base9TimeDeltaaSES0_(ptr noundef nonnull align 8 dereferenceable(8) %7, i64 %11)
  %13 = load ptr, ptr %4, align 8, !tbaa !23
  %14 = getelementptr inbounds nuw %"class.net::QuicTime::Delta", ptr %13, i32 0, i32 1
  %15 = load i64, ptr %14, align 8, !tbaa !25
  %16 = getelementptr inbounds nuw %"class.net::QuicTime::Delta", ptr %6, i32 0, i32 1
  store i64 %15, ptr %16, align 8, !tbaa !25
  ret ptr %6
}

; Function Attrs: inlinehint mustprogress uwtable
define linkonce_odr noundef zeroext i1 @_ZN3netleENS_8QuicTime5DeltaES1_(i64 %0, i64 %1, i64 %2, i64 %3) #1 comdat {
  %5 = alloca %"class.net::QuicTime::Delta", align 8
  %6 = alloca %"class.net::QuicTime::Delta", align 8
  %7 = alloca %"class.net::QuicTime::Delta", align 8
  %8 = alloca %"class.net::QuicTime::Delta", align 8
  %9 = getelementptr inbounds nuw { i64, i64 }, ptr %5, i32 0, i32 0
  store i64 %0, ptr %9, align 8
  %10 = getelementptr inbounds nuw { i64, i64 }, ptr %5, i32 0, i32 1
  store i64 %1, ptr %10, align 8
  %11 = getelementptr inbounds nuw { i64, i64 }, ptr %6, i32 0, i32 0
  store i64 %2, ptr %11, align 8
  %12 = getelementptr inbounds nuw { i64, i64 }, ptr %6, i32 0, i32 1
  store i64 %3, ptr %12, align 8
  call void @llvm.memcpy.p0.p0.i64(ptr align 8 %7, ptr align 8 %6, i64 16, i1 false), !tbaa.struct !20
  call void @llvm.memcpy.p0.p0.i64(ptr align 8 %8, ptr align 8 %5, i64 16, i1 false), !tbaa.struct !20
  %13 = getelementptr inbounds nuw { i64, i64 }, ptr %7, i32 0, i32 0
  %14 = load i64, ptr %13, align 8
  %15 = getelementptr inbounds nuw { i64, i64 }, ptr %7, i32 0, i32 1
  %16 = load i64, ptr %15, align 8
  %17 = getelementptr inbounds nuw { i64, i64 }, ptr %8, i32 0, i32 0
  %18 = load i64, ptr %17, align 8
  %19 = getelementptr inbounds nuw { i64, i64 }, ptr %8, i32 0, i32 1
  %20 = load i64, ptr %19, align 8
  %21 = call noundef zeroext i1 @_ZN3netltENS_8QuicTime5DeltaES1_(i64 %14, i64 %16, i64 %18, i64 %20)
  %22 = xor i1 %21, true
  ret i1 %22
}

; Function Attrs: inlinehint mustprogress nounwind uwtable
define linkonce_odr noundef zeroext i1 @_ZNK3net8QuicTime5Delta6IsZeroEv(ptr noundef nonnull align 8 dereferenceable(16) %0) #4 comdat align 2 {
  %2 = alloca ptr, align 8
  store ptr %0, ptr %2, align 8, !tbaa !23
  %3 = load ptr, ptr %2, align 8
  %4 = getelementptr inbounds nuw %"class.net::QuicTime::Delta", ptr %3, i32 0, i32 1
  %5 = load i64, ptr %4, align 8, !tbaa !25
  %6 = icmp eq i64 %5, 0
  ret i1 %6
}

; Function Attrs: mustprogress uwtable
define void @_ZN3net8RttStats20UpdateWindowedMinRttENS_8QuicTime5DeltaES1_(ptr noundef nonnull align 8 dereferenceable(224) %0, i64 %1, i64 %2, i64 %3) #0 align 2 {
  %5 = alloca %"class.net::QuicTime::Delta", align 8
  %6 = alloca %"class.net::QuicTime", align 8
  %7 = alloca ptr, align 8
  %8 = alloca %"class.net::QuicTime::Delta", align 8
  %9 = alloca %"class.net::QuicTime", align 8
  %10 = alloca %"class.net::QuicTime::Delta", align 8
  %11 = alloca %"class.net::QuicTime::Delta", align 8
  %12 = alloca %"class.net::QuicTime::Delta", align 8
  %13 = alloca %"class.net::QuicTime", align 8
  %14 = getelementptr inbounds nuw { i64, i64 }, ptr %5, i32 0, i32 0
  store i64 %1, ptr %14, align 8
  %15 = getelementptr inbounds nuw { i64, i64 }, ptr %5, i32 0, i32 1
  store i64 %2, ptr %15, align 8
  %16 = getelementptr inbounds nuw %"class.net::QuicTime", ptr %6, i32 0, i32 0
  store i64 %3, ptr %16, align 8
  store ptr %0, ptr %7, align 8, !tbaa !3
  %17 = load ptr, ptr %7, align 8
  %18 = getelementptr inbounds nuw %"class.net::RttStats", ptr %17, i32 0, i32 9
  call void @llvm.memcpy.p0.p0.i64(ptr align 8 %8, ptr align 8 %5, i64 16, i1 false), !tbaa.struct !20
  call void @llvm.memcpy.p0.p0.i64(ptr align 8 %9, ptr align 8 %6, i64 8, i1 false), !tbaa.struct !21
  %19 = getelementptr inbounds nuw { i64, i64 }, ptr %8, i32 0, i32 0
  %20 = load i64, ptr %19, align 8
  %21 = getelementptr inbounds nuw { i64, i64 }, ptr %8, i32 0, i32 1
  %22 = load i64, ptr %21, align 8
  %23 = getelementptr inbounds nuw %"class.net::QuicTime", ptr %9, i32 0, i32 0
  %24 = load i64, ptr %23, align 8
  call void @_ZN3net14WindowedFilterINS_8QuicTime5DeltaENS_9MinFilterIS2_EES1_S2_E6UpdateES2_S1_(ptr noundef nonnull align 8 dereferenceable(104) %18, i64 %20, i64 %22, i64 %24)
  %25 = getelementptr inbounds nuw %"class.net::RttStats", ptr %17, i32 0, i32 8
  %26 = load i32, ptr %25, align 8, !tbaa !16
  %27 = icmp ule i32 %26, 0
  br i1 %27, label %28, label %29

28:                                               ; preds = %4
  br label %65

29:                                               ; preds = %4
  %30 = getelementptr inbounds nuw %"class.net::RttStats", ptr %17, i32 0, i32 6
  %31 = call noundef zeroext i1 @_ZNK3net8QuicTime5Delta6IsZeroEv(ptr noundef nonnull align 8 dereferenceable(16) %30)
  br i1 %31, label %43, label %32

32:                                               ; preds = %29
  call void @llvm.memcpy.p0.p0.i64(ptr align 8 %10, ptr align 8 %5, i64 16, i1 false), !tbaa.struct !20
  %33 = getelementptr inbounds nuw %"class.net::RttStats", ptr %17, i32 0, i32 6
  call void @llvm.memcpy.p0.p0.i64(ptr align 8 %11, ptr align 8 %33, i64 16, i1 false), !tbaa.struct !20
  %34 = getelementptr inbounds nuw { i64, i64 }, ptr %10, i32 0, i32 0
  %35 = load i64, ptr %34, align 8
  %36 = getelementptr inbounds nuw { i64, i64 }, ptr %10, i32 0, i32 1
  %37 = load i64, ptr %36, align 8
  %38 = getelementptr inbounds nuw { i64, i64 }, ptr %11, i32 0, i32 0
  %39 = load i64, ptr %38, align 8
  %40 = getelementptr inbounds nuw { i64, i64 }, ptr %11, i32 0, i32 1
  %41 = load i64, ptr %40, align 8
  %42 = call noundef zeroext i1 @_ZN3netleENS_8QuicTime5DeltaES1_(i64 %35, i64 %37, i64 %39, i64 %41)
  br i1 %42, label %43, label %47

43:                                               ; preds = %32, %29
  %44 = getelementptr inbounds nuw %"class.net::RttStats", ptr %17, i32 0, i32 6
  %45 = call noundef nonnull align 8 dereferenceable(16) ptr @_ZN3net8QuicTime5DeltaaSERKS1_(ptr noundef nonnull align 8 dereferenceable(16) %44, ptr noundef nonnull align 8 dereferenceable(16) %5)
  %46 = getelementptr inbounds nuw %"class.net::RttStats", ptr %17, i32 0, i32 7
  call void @llvm.memcpy.p0.p0.i64(ptr align 8 %46, ptr align 8 %6, i64 8, i1 false), !tbaa.struct !21
  br label %47

47:                                               ; preds = %43, %32
  %48 = getelementptr inbounds nuw %"class.net::RttStats", ptr %17, i32 0, i32 8
  %49 = load i32, ptr %48, align 8, !tbaa !16
  %50 = icmp eq i32 %49, 1
  br i1 %50, label %51, label %61

51:                                               ; preds = %47
  %52 = getelementptr inbounds nuw %"class.net::RttStats", ptr %17, i32 0, i32 9
  %53 = getelementptr inbounds nuw %"class.net::RttStats", ptr %17, i32 0, i32 6
  call void @llvm.memcpy.p0.p0.i64(ptr align 8 %12, ptr align 8 %53, i64 16, i1 false), !tbaa.struct !20
  %54 = getelementptr inbounds nuw %"class.net::RttStats", ptr %17, i32 0, i32 7
  call void @llvm.memcpy.p0.p0.i64(ptr align 8 %13, ptr align 8 %54, i64 8, i1 false), !tbaa.struct !21
  %55 = getelementptr inbounds nuw { i64, i64 }, ptr %12, i32 0, i32 0
  %56 = load i64, ptr %55, align 8
  %57 = getelementptr inbounds nuw { i64, i64 }, ptr %12, i32 0, i32 1
  %58 = load i64, ptr %57, align 8
  %59 = getelementptr inbounds nuw %"class.net::QuicTime", ptr %13, i32 0, i32 0
  %60 = load i64, ptr %59, align 8
  call void @_ZN3net14WindowedFilterINS_8QuicTime5DeltaENS_9MinFilterIS2_EES1_S2_E5ResetES2_S1_(ptr noundef nonnull align 8 dereferenceable(104) %52, i64 %56, i64 %58, i64 %60)
  br label %61

61:                                               ; preds = %51, %47
  %62 = getelementptr inbounds nuw %"class.net::RttStats", ptr %17, i32 0, i32 8
  %63 = load i32, ptr %62, align 8, !tbaa !16
  %64 = add i32 %63, -1
  store i32 %64, ptr %62, align 8, !tbaa !16
  br label %65

65:                                               ; preds = %61, %28
  ret void
}