; Function Attrs: mustprogress uwtable
define void @_ZN3net8RttStats20UpdateWindowedMinRttENS_8QuicTime5DeltaES1_(ptr noundef nonnull align 8 dereferenceable(224) %0, i64 %1, i64 %2, i64 %3) local_unnamed_addr #3 align 2 {
  %5 = getelementptr inbounds nuw i8, ptr %0, i64 120
  tail call void @_ZN3net14WindowedFilterINS_8QuicTime5DeltaENS_9MinFilterIS2_EES1_S2_E6UpdateES2_S1_(ptr noundef nonnull align 8 dereferenceable(104) %5, i64 %1, i64 %2, i64 %3)
  %6 = getelementptr inbounds nuw i8, ptr %0, i64 112
  %7 = load i32, ptr %6, align 8, !tbaa !14
  %8 = icmp eq i32 %7, 0
  br i1 %8, label %32, label %9

9:                                                ; preds = %4
  %10 = getelementptr inbounds nuw i8, ptr %0, i64 88
  %11 = getelementptr inbounds nuw i8, ptr %0, i64 96
  %12 = load i64, ptr %11, align 8, !tbaa !16
  %13 = icmp eq i64 %12, 0
  %14 = icmp sge i64 %12, %2
  %or.cond = select i1 %13, i1 true, i1 %14
  br i1 %or.cond, label %15, label %17

15:                                               ; preds = %9
  store i64 %1, ptr %10, align 8, !tbaa !15
  store i64 %2, ptr %11, align 8, !tbaa !16
  %16 = getelementptr inbounds nuw i8, ptr %0, i64 104
  store i64 %3, ptr %16, align 8, !tbaa !13
  br label %17

17:                                               ; preds = %9, %15
  %.sroa.2.0.copyload = phi i64 [ %12, %9 ], [ %2, %15 ]
  %18 = icmp eq i32 %7, 1
  br i1 %18, label %19, label %30

19:                                               ; preds = %17
  %.sroa.01.0.copyload = load i64, ptr %10, align 8, !tbaa !13
  %20 = getelementptr inbounds nuw i8, ptr %0, i64 104
  %.sroa.0.0.copyload = load i64, ptr %20, align 8, !tbaa !13
  %21 = getelementptr inbounds nuw i8, ptr %0, i64 152
  %22 = getelementptr inbounds nuw i8, ptr %0, i64 200
  store i64 %.sroa.01.0.copyload, ptr %22, align 8, !tbaa !15
  %23 = getelementptr inbounds nuw i8, ptr %0, i64 208
  store i64 %.sroa.2.0.copyload, ptr %23, align 8, !tbaa !16
  %24 = getelementptr inbounds nuw i8, ptr %0, i64 216
  store i64 %.sroa.0.0.copyload, ptr %24, align 8, !tbaa !13
  %25 = getelementptr inbounds nuw i8, ptr %0, i64 176
  store i64 %.sroa.01.0.copyload, ptr %25, align 8, !tbaa !15
  %26 = getelementptr inbounds nuw i8, ptr %0, i64 184
  store i64 %.sroa.2.0.copyload, ptr %26, align 8, !tbaa !16
  %27 = getelementptr inbounds nuw i8, ptr %0, i64 192
  store i64 %.sroa.0.0.copyload, ptr %27, align 8, !tbaa !13
  store i64 %.sroa.01.0.copyload, ptr %21, align 8, !tbaa !15
  %28 = getelementptr inbounds nuw i8, ptr %0, i64 160
  store i64 %.sroa.2.0.copyload, ptr %28, align 8, !tbaa !16
  %29 = getelementptr inbounds nuw i8, ptr %0, i64 168
  store i64 %.sroa.0.0.copyload, ptr %29, align 8, !tbaa !13
  br label %30

30:                                               ; preds = %19, %17
  %31 = add i32 %7, -1
  store i32 %31, ptr %6, align 8, !tbaa !14
  br label %32

32:                                               ; preds = %4, %30
  ret void
}